target datalayout = "e-m:e-p270:32:32-p271:32:32-p272:64:64-i64:64-i128:128-f80:128-n8:16:32:64-S128"
target triple = "x86_64-pc-linux-gnu"

%struct.ioctl_arg = type { i32, i64, i64 }

; Function Attrs: nounwind sspstrong uwtable
define internal i64 @nogvl_ioctl(ptr noundef %0) #0 {
  %2 = alloca ptr, align 8
  %3 = alloca ptr, align 8
  store ptr %0, ptr %2, align 8, !tbaa !12
  call void @llvm.lifetime.start.p0(i64 8, ptr %3) #28
  %4 = load ptr, ptr %2, align 8, !tbaa !12
  store ptr %4, ptr %3, align 8, !tbaa !400
  %5 = load ptr, ptr %3, align 8, !tbaa !400
  %6 = getelementptr inbounds nuw %struct.ioctl_arg, ptr %5, i32 0, i32 0
  %7 = load i32, ptr %6, align 8, !tbaa !396
  %8 = load ptr, ptr %3, align 8, !tbaa !400
  %9 = getelementptr inbounds nuw %struct.ioctl_arg, ptr %8, i32 0, i32 1
  %10 = load i64, ptr %9, align 8, !tbaa !398
  %11 = load ptr, ptr %3, align 8, !tbaa !400
  %12 = getelementptr inbounds nuw %struct.ioctl_arg, ptr %11, i32 0, i32 2
  %13 = load i64, ptr %12, align 8, !tbaa !399
  %14 = call i32 (i32, i64, ...) @ioctl(i32 noundef %7, i64 noundef %10, i64 noundef %13) #28
  %15 = sext i32 %14 to i64
  call void @llvm.lifetime.end.p0(i64 8, ptr %3) #28
  ret i64 %15
}