; Function Attrs: nounwind sspstrong uwtable
define internal range(i64 -2147483648, 2147483648) i64 @nogvl_ioctl(ptr noundef readonly captures(none) %0) #0 {
  %2 = load i32, ptr %0, align 8, !tbaa !302
  %3 = getelementptr inbounds nuw i8, ptr %0, i64 8
  %4 = load i64, ptr %3, align 8, !tbaa !304
  %5 = getelementptr inbounds nuw i8, ptr %0, i64 16
  %6 = load i64, ptr %5, align 8, !tbaa !305
  %7 = tail call i32 (i32, i64, ...) @ioctl(i32 noundef %2, i64 noundef %4, i64 noundef %6) #28
  %8 = sext i32 %7 to i64
  ret i64 %8
}